; Function Attrs: nounwind uwtable
define i32 @evconnlistener_disable(ptr noundef %0) local_unnamed_addr #0 {
  %2 = getelementptr inbounds nuw i8, ptr %0, i64 8
  %3 = load ptr, ptr %2, align 8
  %.not = icmp eq ptr %3, null
  br i1 %.not, label %7, label %4

4:                                                ; preds = %1
  %5 = load ptr, ptr getelementptr inbounds nuw (i8, ptr @evthread_lock_fns_, i64 24), align 8
  %6 = tail call i32 %5(i32 noundef 0, ptr noundef nonnull %3) #6
  br label %7

7:                                                ; preds = %4, %1
  %8 = getelementptr inbounds nuw i8, ptr %0, i64 52
  %9 = load i8, ptr %8, align 4
  %10 = and i8 %9, -2
  store i8 %10, ptr %8, align 4
  %11 = load ptr, ptr %0, align 8
  %12 = getelementptr inbounds nuw i8, ptr %11, i64 8
  %13 = load ptr, ptr %12, align 8
  %14 = tail call i32 %13(ptr noundef nonnull %0) #6
  %15 = load ptr, ptr %2, align 8
  %.not8 = icmp eq ptr %15, null
  br i1 %.not8, label %19, label %16

16:                                               ; preds = %7
  %17 = load ptr, ptr getelementptr inbounds nuw (i8, ptr @evthread_lock_fns_, i64 32), align 8
  %18 = tail call i32 %17(i32 noundef 0, ptr noundef nonnull %15) #6
  br label %19

19:                                               ; preds = %16, %7
  ret i32 %14
}